; Function Attrs: mustprogress nounwind uwtable
define dso_local void @_ZN4llvm11ScheduleDAGD2Ev(ptr noundef nonnull align 8 dereferenceable(584) %0) unnamed_addr #1 align 2 {
  store ptr getelementptr inbounds inrange(-16, 72) (i8, ptr @_ZTVN4llvm11ScheduleDAGE, i64 16), ptr %0, align 8
  %2 = getelementptr inbounds i8, ptr %0, i64 448
  %3 = tail call noundef i64 @_ZNK4llvm15SmallVectorBaseIjE4sizeEv(ptr noundef nonnull align 8 dereferenceable(16) %2) #16
  %4 = load ptr, ptr %2, align 8
  %5 = getelementptr inbounds i8, ptr %0, i64 464
  %6 = icmp eq ptr %4, %5
  br i1 %6, label %_ZN4llvm11SmallVectorINS_4SDepELj4EED2Ev.exit.i, label %7

7:                                                ; preds = %1
  tail call void @free(ptr noundef %4) #16
  br label %_ZN4llvm11SmallVectorINS_4SDepELj4EED2Ev.exit.i

_ZN4llvm11SmallVectorINS_4SDepELj4EED2Ev.exit.i:  ; preds = %7, %1
  %8 = getelementptr inbounds i8, ptr %0, i64 368
  %9 = tail call noundef i64 @_ZNK4llvm15SmallVectorBaseIjE4sizeEv(ptr noundef nonnull align 8 dereferenceable(16) %8) #16
  %10 = load ptr, ptr %8, align 8
  %11 = getelementptr inbounds i8, ptr %0, i64 384
  %12 = icmp eq ptr %10, %11
  br i1 %12, label %_ZN4llvm5SUnitD2Ev.exit, label %13

13:                                               ; preds = %_ZN4llvm11SmallVectorINS_4SDepELj4EED2Ev.exit.i
  tail call void @free(ptr noundef %10) #16
  br label %_ZN4llvm5SUnitD2Ev.exit

_ZN4llvm5SUnitD2Ev.exit:                          ; preds = %_ZN4llvm11SmallVectorINS_4SDepELj4EED2Ev.exit.i, %13
  %14 = getelementptr inbounds i8, ptr %0, i64 192
  %15 = tail call noundef i64 @_ZNK4llvm15SmallVectorBaseIjE4sizeEv(ptr noundef nonnull align 8 dereferenceable(16) %14) #16
  %16 = load ptr, ptr %14, align 8
  %17 = getelementptr inbounds i8, ptr %0, i64 208
  %18 = icmp eq ptr %16, %17
  br i1 %18, label %_ZN4llvm11SmallVectorINS_4SDepELj4EED2Ev.exit.i1, label %19

19:                                               ; preds = %_ZN4llvm5SUnitD2Ev.exit
  tail call void @free(ptr noundef %16) #16
  br label %_ZN4llvm11SmallVectorINS_4SDepELj4EED2Ev.exit.i1

_ZN4llvm11SmallVectorINS_4SDepELj4EED2Ev.exit.i1: ; preds = %19, %_ZN4llvm5SUnitD2Ev.exit
  %20 = getelementptr inbounds i8, ptr %0, i64 112
  %21 = tail call noundef i64 @_ZNK4llvm15SmallVectorBaseIjE4sizeEv(ptr noundef nonnull align 8 dereferenceable(16) %20) #16
  %22 = load ptr, ptr %20, align 8
  %23 = getelementptr inbounds i8, ptr %0, i64 128
  %24 = icmp eq ptr %22, %23
  br i1 %24, label %_ZN4llvm5SUnitD2Ev.exit2, label %25

25:                                               ; preds = %_ZN4llvm11SmallVectorINS_4SDepELj4EED2Ev.exit.i1
  tail call void @free(ptr noundef %22) #16
  br label %_ZN4llvm5SUnitD2Ev.exit2

_ZN4llvm5SUnitD2Ev.exit2:                         ; preds = %_ZN4llvm11SmallVectorINS_4SDepELj4EED2Ev.exit.i1, %25
  %26 = getelementptr inbounds nuw i8, ptr %0, i64 48
  %27 = load ptr, ptr %26, align 8
  %28 = getelementptr inbounds i8, ptr %0, i64 56
  %29 = load ptr, ptr %28, align 8
  %.not4.i.i.i.i = icmp eq ptr %27, %29
  br i1 %.not4.i.i.i.i, label %_ZSt8_DestroyIPN4llvm5SUnitES1_EvT_S3_RSaIT0_E.exit.i, label %.lr.ph.i.i.i.i

.lr.ph.i.i.i.i:                                   ; preds = %_ZN4llvm5SUnitD2Ev.exit2, %_ZSt8_DestroyIN4llvm5SUnitEEvPT_.exit.i.i.i.i
  %.05.i.i.i.i = phi ptr [ %42, %_ZSt8_DestroyIN4llvm5SUnitEEvPT_.exit.i.i.i.i ], [ %27, %_ZN4llvm5SUnitD2Ev.exit2 ]
  %30 = getelementptr inbounds nuw i8, ptr %.05.i.i.i.i, i64 120
  %31 = tail call noundef i64 @_ZNK4llvm15SmallVectorBaseIjE4sizeEv(ptr noundef nonnull align 8 dereferenceable(16) %30) #16
  %32 = load ptr, ptr %30, align 8
  %33 = getelementptr inbounds i8, ptr %.05.i.i.i.i, i64 136
  %34 = icmp eq ptr %32, %33
  br i1 %34, label %_ZN4llvm11SmallVectorINS_4SDepELj4EED2Ev.exit.i.i.i.i.i.i, label %35

35:                                               ; preds = %.lr.ph.i.i.i.i
  tail call void @free(ptr noundef %32) #16
  br label %_ZN4llvm11SmallVectorINS_4SDepELj4EED2Ev.exit.i.i.i.i.i.i

_ZN4llvm11SmallVectorINS_4SDepELj4EED2Ev.exit.i.i.i.i.i.i: ; preds = %35, %.lr.ph.i.i.i.i
  %36 = getelementptr inbounds nuw i8, ptr %.05.i.i.i.i, i64 40
  %37 = tail call noundef i64 @_ZNK4llvm15SmallVectorBaseIjE4sizeEv(ptr noundef nonnull align 8 dereferenceable(16) %36) #16
  %38 = load ptr, ptr %36, align 8
  %39 = getelementptr inbounds i8, ptr %.05.i.i.i.i, i64 56
  %40 = icmp eq ptr %38, %39
  br i1 %40, label %_ZSt8_DestroyIN4llvm5SUnitEEvPT_.exit.i.i.i.i, label %41

41:                                               ; preds = %_ZN4llvm11SmallVectorINS_4SDepELj4EED2Ev.exit.i.i.i.i.i.i
  tail call void @free(ptr noundef %38) #16
  br label %_ZSt8_DestroyIN4llvm5SUnitEEvPT_.exit.i.i.i.i

_ZSt8_DestroyIN4llvm5SUnitEEvPT_.exit.i.i.i.i:    ; preds = %41, %_ZN4llvm11SmallVectorINS_4SDepELj4EED2Ev.exit.i.i.i.i.i.i
  %42 = getelementptr inbounds i8, ptr %.05.i.i.i.i, i64 256
  %.not.i.i.i.i = icmp eq ptr %42, %29
  br i1 %.not.i.i.i.i, label %_ZSt8_DestroyIPN4llvm5SUnitES1_EvT_S3_RSaIT0_E.exitthread-pre-split.i, label %.lr.ph.i.i.i.i, !llvm.loop !4

_ZSt8_DestroyIPN4llvm5SUnitES1_EvT_S3_RSaIT0_E.exitthread-pre-split.i: ; preds = %_ZSt8_DestroyIN4llvm5SUnitEEvPT_.exit.i.i.i.i
  %.pr.i = load ptr, ptr %26, align 8
  br label %_ZSt8_DestroyIPN4llvm5SUnitES1_EvT_S3_RSaIT0_E.exit.i

_ZSt8_DestroyIPN4llvm5SUnitES1_EvT_S3_RSaIT0_E.exit.i: ; preds = %_ZSt8_DestroyIPN4llvm5SUnitES1_EvT_S3_RSaIT0_E.exitthread-pre-split.i, %_ZN4llvm5SUnitD2Ev.exit2
  %43 = phi ptr [ %.pr.i, %_ZSt8_DestroyIPN4llvm5SUnitES1_EvT_S3_RSaIT0_E.exitthread-pre-split.i ], [ %27, %_ZN4llvm5SUnitD2Ev.exit2 ]
  %.not.i.i.i = icmp eq ptr %43, null
  br i1 %.not.i.i.i, label %_ZNSt6vectorIN4llvm5SUnitESaIS1_EED2Ev.exit, label %44

44:                                               ; preds = %_ZSt8_DestroyIPN4llvm5SUnitES1_EvT_S3_RSaIT0_E.exit.i
  %45 = getelementptr inbounds i8, ptr %0, i64 64
  %46 = load ptr, ptr %45, align 8
  %47 = ptrtoint ptr %46 to i64
  %48 = ptrtoint ptr %43 to i64
  %49 = sub i64 %47, %48
  tail call void @_ZdlPvm(ptr noundef nonnull %43, i64 noundef %49) #17
  br label %_ZNSt6vectorIN4llvm5SUnitESaIS1_EED2Ev.exit

_ZNSt6vectorIN4llvm5SUnitESaIS1_EED2Ev.exit:      ; preds = %_ZSt8_DestroyIPN4llvm5SUnitES1_EvT_S3_RSaIT0_E.exit.i, %44
  ret void
}